target datalayout = "e-m:e-p270:32:32-p271:32:32-p272:64:64-i64:64-i128:128-f80:128-n8:16:32:64-S128"
target triple = "x86_64-pc-linux-gnu"

%struct.expert_field = type { i32, i32 }

@hf_alt_assignment_map_assignment_type = internal global i32 0, align 4
@hf_alt_assignment_map_assignment_length = internal global i32 0, align 4
@ei_wccp_assignment_length_bad = internal global %struct.expert_field zeroinitializer, align 4
@.str.435 = private unnamed_addr constant [80 x i8] c"Assignment length is %d but only %d remain in the packet. Ignoring this for now\00", align 1
@.str.463 = private unnamed_addr constant [120 x i8] c"Assignment length is %d but %d remain in the packet. Assuming that the assignment length is wrong and setting it to %d.\00", align 1

; Function Attrs: null_pointer_is_valid sspstrong uwtable
define internal i32 @dissect_wccp2r1_alt_assignment_map_info(ptr noundef %0, i32 noundef %1, i32 noundef %2, ptr noundef %3, ptr noundef %4, ptr noundef %5) #0 {
  %7 = alloca i32, align 4
  %8 = alloca ptr, align 8
  %9 = alloca i32, align 4
  %10 = alloca i32, align 4
  %11 = alloca ptr, align 8
  %12 = alloca ptr, align 8
  %13 = alloca ptr, align 8
  %14 = alloca i16, align 2
  %15 = alloca i16, align 2
  %16 = alloca ptr, align 8
  %17 = alloca i32, align 4
  store ptr %0, ptr %8, align 8
  store i32 %1, ptr %9, align 4
  store i32 %2, ptr %10, align 4
  store ptr %3, ptr %11, align 8
  store ptr %4, ptr %12, align 8
  store ptr %5, ptr %13, align 8
  call void @llvm.lifetime.start.p0(i64 2, ptr %14) #9
  call void @llvm.lifetime.start.p0(i64 2, ptr %15) #9
  call void @llvm.lifetime.start.p0(i64 8, ptr %16) #9
  store ptr null, ptr %16, align 8
  %18 = load i32, ptr %10, align 4
  %19 = icmp slt i32 %18, 4
  br i1 %19, label %20, label %23

20:                                               ; preds = %6
  %21 = load i32, ptr %10, align 4
  %22 = sub i32 %21, 4
  store i32 %22, ptr %7, align 4
  store i32 1, ptr %17, align 4
  br label %112

23:                                               ; preds = %6
  %24 = load ptr, ptr %8, align 8
  %25 = load i32, ptr %9, align 4
  %26 = call zeroext i16 @tvb_get_ntohs(ptr noundef %24, i32 noundef %25)
  store i16 %26, ptr %14, align 2
  %27 = load ptr, ptr %12, align 8
  %28 = load i32, ptr @hf_alt_assignment_map_assignment_type, align 4
  %29 = load ptr, ptr %8, align 8
  %30 = load i32, ptr %9, align 4
  %31 = call ptr @proto_tree_add_item(ptr noundef %27, i32 noundef %28, ptr noundef %29, i32 noundef %30, i32 noundef 2, i32 noundef 0)
  %32 = load i32, ptr %10, align 4
  %33 = sub i32 %32, 2
  store i32 %33, ptr %10, align 4
  %34 = load i32, ptr %9, align 4
  %35 = add i32 %34, 2
  store i32 %35, ptr %9, align 4
  %36 = load i32, ptr %10, align 4
  %37 = icmp slt i32 %36, 2
  br i1 %37, label %38, label %41

38:                                               ; preds = %23
  %39 = load i32, ptr %10, align 4
  %40 = sub i32 %39, 2
  store i32 %40, ptr %7, align 4
  store i32 1, ptr %17, align 4
  br label %112

41:                                               ; preds = %23
  %42 = load ptr, ptr %8, align 8
  %43 = load i32, ptr %9, align 4
  %44 = call zeroext i16 @tvb_get_ntohs(ptr noundef %42, i32 noundef %43)
  store i16 %44, ptr %15, align 2
  %45 = load ptr, ptr %12, align 8
  %46 = load i32, ptr @hf_alt_assignment_map_assignment_length, align 4
  %47 = load ptr, ptr %8, align 8
  %48 = load i32, ptr %9, align 4
  %49 = call ptr @proto_tree_add_item(ptr noundef %45, i32 noundef %46, ptr noundef %47, i32 noundef %48, i32 noundef 2, i32 noundef 0)
  store ptr %49, ptr %16, align 8
  %50 = load i32, ptr %10, align 4
  %51 = sub i32 %50, 2
  store i32 %51, ptr %10, align 4
  %52 = load i32, ptr %9, align 4
  %53 = add i32 %52, 2
  store i32 %53, ptr %9, align 4
  %54 = load i32, ptr %10, align 4
  %55 = load i16, ptr %15, align 2
  %56 = zext i16 %55 to i32
  %57 = icmp slt i32 %54, %56
  br i1 %57, label %58, label %65

58:                                               ; preds = %41
  %59 = load ptr, ptr %11, align 8
  %60 = load ptr, ptr %16, align 8
  %61 = load i16, ptr %15, align 2
  %62 = zext i16 %61 to i32
  %63 = load i32, ptr %10, align 4
  %64 = call ptr (ptr, ptr, ptr, ptr, ...) @expert_add_info_format(ptr noundef %59, ptr noundef %60, ptr noundef @ei_wccp_assignment_length_bad, ptr noundef @.str.435, i32 noundef %62, i32 noundef %63)
  br label %65

65:                                               ; preds = %58, %41
  %66 = load i32, ptr %10, align 4
  %67 = load i16, ptr %15, align 2
  %68 = zext i16 %67 to i32
  %69 = icmp sgt i32 %66, %68
  br i1 %69, label %70, label %80

70:                                               ; preds = %65
  %71 = load ptr, ptr %11, align 8
  %72 = load ptr, ptr %16, align 8
  %73 = load i16, ptr %15, align 2
  %74 = zext i16 %73 to i32
  %75 = load i32, ptr %10, align 4
  %76 = load i32, ptr %10, align 4
  %77 = call ptr (ptr, ptr, ptr, ptr, ...) @expert_add_info_format(ptr noundef %71, ptr noundef %72, ptr noundef @ei_wccp_assignment_length_bad, ptr noundef @.str.463, i32 noundef %74, i32 noundef %75, i32 noundef %76)
  %78 = load i32, ptr %10, align 4
  %79 = trunc i32 %78 to i16
  store i16 %79, ptr %15, align 2
  br label %80

80:                                               ; preds = %70, %65
  %81 = load i16, ptr %14, align 2
  %82 = zext i16 %81 to i32
  switch i32 %82, label %110 [
    i32 0, label %83
    i32 1, label %92
    i32 2, label %101
  ]

83:                                               ; preds = %80
  %84 = load ptr, ptr %8, align 8
  %85 = load i32, ptr %9, align 4
  %86 = load i16, ptr %15, align 2
  %87 = zext i16 %86 to i32
  %88 = load ptr, ptr %11, align 8
  %89 = load ptr, ptr %12, align 8
  %90 = load ptr, ptr %13, align 8
  %91 = call i32 @dissect_wccp2_assignment_info(ptr noundef %84, i32 noundef %85, i32 noundef %87, ptr noundef %88, ptr noundef %89, ptr noundef %90)
  store i32 %91, ptr %7, align 4
  store i32 1, ptr %17, align 4
  br label %112

92:                                               ; preds = %80
  %93 = load ptr, ptr %8, align 8
  %94 = load i32, ptr %9, align 4
  %95 = load i16, ptr %15, align 2
  %96 = zext i16 %95 to i32
  %97 = load ptr, ptr %11, align 8
  %98 = load ptr, ptr %12, align 8
  %99 = load ptr, ptr %13, align 8
  %100 = call i32 @dissect_wccp2_mask_value_set_list(ptr noundef %93, i32 noundef %94, i32 noundef %96, ptr noundef %97, ptr noundef %98, ptr noundef %99)
  store i32 %100, ptr %7, align 4
  store i32 1, ptr %17, align 4
  br label %112

101:                                              ; preds = %80
  %102 = load ptr, ptr %8, align 8
  %103 = load i32, ptr %9, align 4
  %104 = load i16, ptr %15, align 2
  %105 = zext i16 %104 to i32
  %106 = load ptr, ptr %11, align 8
  %107 = load ptr, ptr %12, align 8
  %108 = load ptr, ptr %13, align 8
  %109 = call i32 @dissect_wccp2_alternate_mask_value_set_list(ptr noundef %102, i32 noundef %103, i32 noundef %105, ptr noundef %106, ptr noundef %107, ptr noundef %108)
  store i32 %109, ptr %7, align 4
  store i32 1, ptr %17, align 4
  br label %112

110:                                              ; preds = %80
  %111 = load i32, ptr %10, align 4
  store i32 %111, ptr %7, align 4
  store i32 1, ptr %17, align 4
  br label %112

112:                                              ; preds = %110, %101, %92, %83, %38, %20
  call void @llvm.lifetime.end.p0(i64 8, ptr %16) #9
  call void @llvm.lifetime.end.p0(i64 2, ptr %15) #9
  call void @llvm.lifetime.end.p0(i64 2, ptr %14) #9
  %113 = load i32, ptr %7, align 4
  ret i32 %113
}