; Function Attrs: null_pointer_is_valid sspstrong uwtable
define internal i32 @dissect_wccp2r1_alt_assignment_map_info(ptr noundef %0, i32 noundef %1, i32 noundef %2, ptr noundef %3, ptr noundef %4, ptr noundef readonly captures(none) %5) unnamed_addr #0 {
  %7 = icmp slt i32 %2, 4
  br i1 %7, label %8, label %10

8:                                                ; preds = %6
  %9 = add i32 %2, -4
  br label %39

10:                                               ; preds = %6
  %11 = tail call zeroext i16 @tvb_get_ntohs(ptr noundef %0, i32 noundef %1)
  %12 = load i32, ptr @hf_alt_assignment_map_assignment_type, align 4
  %13 = tail call ptr @proto_tree_add_item(ptr noundef %4, i32 noundef %12, ptr noundef %0, i32 noundef %1, i32 noundef 2, i32 noundef 0)
  %14 = add i32 %1, 2
  %15 = tail call zeroext i16 @tvb_get_ntohs(ptr noundef %0, i32 noundef %14)
  %16 = load i32, ptr @hf_alt_assignment_map_assignment_length, align 4
  %17 = tail call ptr @proto_tree_add_item(ptr noundef %4, i32 noundef %16, ptr noundef %0, i32 noundef %14, i32 noundef 2, i32 noundef 0)
  %18 = add nsw i32 %2, -4
  %19 = add i32 %1, 4
  %20 = zext i16 %15 to i32
  %21 = icmp samesign ult i32 %18, %20
  br i1 %21, label %22, label %24

22:                                               ; preds = %10
  %23 = tail call ptr (ptr, ptr, ptr, ptr, ...) @expert_add_info_format(ptr noundef %3, ptr noundef %17, ptr noundef nonnull @ei_wccp_assignment_length_bad, ptr noundef nonnull @.str.435, i32 noundef %20, i32 noundef %18)
  br label %24

24:                                               ; preds = %22, %10
  %25 = icmp samesign ugt i32 %18, %20
  br i1 %25, label %26, label %29

26:                                               ; preds = %24
  %27 = tail call ptr (ptr, ptr, ptr, ptr, ...) @expert_add_info_format(ptr noundef %3, ptr noundef %17, ptr noundef nonnull @ei_wccp_assignment_length_bad, ptr noundef nonnull @.str.463, i32 noundef %20, i32 noundef %18, i32 noundef %18)
  %28 = trunc i32 %18 to i16
  br label %29

29:                                               ; preds = %26, %24
  %.0 = phi i16 [ %28, %26 ], [ %15, %24 ]
  switch i16 %11, label %39 [
    i16 0, label %30
    i16 1, label %33
    i16 2, label %36
  ]

30:                                               ; preds = %29
  %31 = zext i16 %.0 to i32
  %32 = tail call i32 @dissect_wccp2_assignment_info(ptr noundef %0, i32 noundef %19, i32 noundef %31, ptr noundef %3, ptr noundef %4, ptr noundef %5)
  br label %39

33:                                               ; preds = %29
  %34 = zext i16 %.0 to i32
  %35 = tail call fastcc i32 @dissect_wccp2_mask_value_set_list(ptr noundef %0, i32 noundef %19, i32 noundef %34, ptr noundef %4, ptr noundef %5)
  br label %39

36:                                               ; preds = %29
  %37 = zext i16 %.0 to i32
  %38 = tail call fastcc i32 @dissect_wccp2_alternate_mask_value_set_list(ptr noundef %0, i32 noundef %19, i32 noundef %37, ptr noundef %4, ptr noundef %5)
  br label %39

39:                                               ; preds = %29, %36, %33, %30, %8
  %.052 = phi i32 [ %9, %8 ], [ %38, %36 ], [ %35, %33 ], [ %32, %30 ], [ %18, %29 ]
  ret i32 %.052
}